target datalayout = "e-m:e-p270:32:32-p271:32:32-p272:64:64-i64:64-i128:128-f80:128-n8:16:32:64-S128"
target triple = "x86_64-pc-linux-gnu"

%union.pthread_mutex_t = type { %struct.__pthread_mutex_s }
%struct.__pthread_mutex_s = type { i32, i32, i32, i32, i32, i16, i16, %struct.__pthread_internal_list }
%struct.__pthread_internal_list = type { ptr, ptr }
%struct._crawler_module_t = type { ptr, %struct.crawler_client_t, ptr, i32 }
%struct.crawler_client_t = type { ptr, i32, i32, i32, ptr }
%struct.crawler_expired_data = type { %union.pthread_mutex_t, [256 x %struct.crawlerstats_t], i32, i32, i8, i8 }
%struct.crawlerstats_t = type { [61 x i64], i64, i64, i64, i64, i32, i32, i8 }

@current_time = external global i32, align 4

; Function Attrs: nounwind uwtable
define internal void @crawler_expired_doneclass(ptr noundef %0, i32 noundef %1) #0 {
  %3 = alloca ptr, align 8
  %4 = alloca i32, align 4
  %5 = alloca ptr, align 8
  store ptr %0, ptr %3, align 8, !tbaa !4
  store i32 %1, ptr %4, align 4, !tbaa !20
  call void @llvm.lifetime.start.p0(i64 8, ptr %5) #11
  %6 = load ptr, ptr %3, align 8, !tbaa !4
  %7 = getelementptr inbounds nuw %struct._crawler_module_t, ptr %6, i32 0, i32 0
  %8 = load ptr, ptr %7, align 8, !tbaa !16
  store ptr %8, ptr %5, align 8, !tbaa !10
  %9 = load ptr, ptr %5, align 8, !tbaa !10
  %10 = getelementptr inbounds nuw %struct.crawler_expired_data, ptr %9, i32 0, i32 0
  %11 = call i32 @pthread_mutex_lock(ptr noundef %10) #11
  %12 = load volatile i32, ptr @current_time, align 4, !tbaa !20
  %13 = load ptr, ptr %5, align 8, !tbaa !10
  %14 = getelementptr inbounds nuw %struct.crawler_expired_data, ptr %13, i32 0, i32 1
  %15 = load i32, ptr %4, align 4, !tbaa !20
  %16 = sext i32 %15 to i64
  %17 = getelementptr inbounds [256 x %struct.crawlerstats_t], ptr %14, i64 0, i64 %16
  %18 = getelementptr inbounds nuw %struct.crawlerstats_t, ptr %17, i32 0, i32 6
  store i32 %12, ptr %18, align 4, !tbaa !52
  %19 = load ptr, ptr %5, align 8, !tbaa !10
  %20 = getelementptr inbounds nuw %struct.crawler_expired_data, ptr %19, i32 0, i32 1
  %21 = load i32, ptr %4, align 4, !tbaa !20
  %22 = sext i32 %21 to i64
  %23 = getelementptr inbounds [256 x %struct.crawlerstats_t], ptr %20, i64 0, i64 %22
  %24 = getelementptr inbounds nuw %struct.crawlerstats_t, ptr %23, i32 0, i32 7
  store i8 1, ptr %24, align 8, !tbaa !25
  %25 = load ptr, ptr %5, align 8, !tbaa !10
  %26 = getelementptr inbounds nuw %struct.crawler_expired_data, ptr %25, i32 0, i32 0
  %27 = call i32 @pthread_mutex_unlock(ptr noundef %26) #11
  call void @llvm.lifetime.end.p0(i64 8, ptr %5) #11
  ret void
}