; Function Attrs: nounwind uwtable
define internal void @crawler_expired_doneclass(ptr noundef readonly captures(none) %0, i32 noundef %1) #0 {
  %3 = load ptr, ptr %0, align 8, !tbaa !12
  %4 = tail call i32 @pthread_mutex_lock(ptr noundef %3) #18
  %5 = load volatile i32, ptr @current_time, align 4, !tbaa !10
  %6 = getelementptr inbounds nuw i8, ptr %3, i64 40
  %7 = sext i32 %1 to i64
  %8 = getelementptr inbounds [256 x %struct.crawlerstats_t], ptr %6, i64 0, i64 %7
  %9 = getelementptr inbounds nuw i8, ptr %8, i64 524
  store i32 %5, ptr %9, align 4, !tbaa !43
  %10 = getelementptr inbounds nuw i8, ptr %8, i64 528
  store i8 1, ptr %10, align 8, !tbaa !20
  %11 = tail call i32 @pthread_mutex_unlock(ptr noundef %3) #18
  ret void
}